; Function Attrs: mustprogress nofree norecurse nosync nounwind willreturn memory(readwrite, inaccessiblemem: none) uwtable
define internal noundef ptr @typealias_repr(ptr noundef readonly captures(none) %0) #3 {
  %2 = getelementptr inbounds nuw i8, ptr %0, i64 16
  %3 = load ptr, ptr %2, align 8, !tbaa !132
  %4 = load i32, ptr %3, align 8, !tbaa !27
  %5 = icmp slt i32 %4, 0
  br i1 %5, label %_Py_NewRef.exit, label %6

6:                                                ; preds = %1
  %7 = add nuw i32 %4, 1
  store i32 %7, ptr %3, align 8, !tbaa !27
  br label %_Py_NewRef.exit

_Py_NewRef.exit:                                  ; preds = %1, %6
  ret ptr %3
}